target datalayout = "e-m:e-p270:32:32-p271:32:32-p272:64:64-i64:64-i128:128-f80:128-n8:16:32:64-S128"
target triple = "x86_64-pc-linux-gnu"

%struct.LargeObjectDesc = type { i32, ptr, i32, i64, i32 }

@cookies = internal global ptr null, align 8
@cookies_size = internal global i32 0, align 4
@.str.1 = private unnamed_addr constant [36 x i8] c"invalid large-object descriptor: %d\00", align 1
@.str.2 = private unnamed_addr constant [13 x i8] c"be-fsstubs.c\00", align 1
@__func__.lo_write = private unnamed_addr constant [9 x i8] c"lo_write\00", align 1
@.str.4 = private unnamed_addr constant [54 x i8] c"large object descriptor %d was not opened for writing\00", align 1

; Function Attrs: nounwind uwtable
define dso_local i32 @lo_write(i32 noundef %0, ptr noundef %1, i32 noundef %2) #0 {
  %4 = alloca i32, align 4
  %5 = alloca ptr, align 8
  %6 = alloca i32, align 4
  %7 = alloca i32, align 4
  %8 = alloca ptr, align 8
  store i32 %0, ptr %4, align 4
  store ptr %1, ptr %5, align 8
  store i32 %2, ptr %6, align 4
  call void @llvm.lifetime.start.p0(i64 4, ptr %7) #8
  call void @llvm.lifetime.start.p0(i64 8, ptr %8) #8
  %9 = load i32, ptr %4, align 4
  %10 = icmp slt i32 %9, 0
  br i1 %10, label %22, label %11

11:                                               ; preds = %3
  %12 = load i32, ptr %4, align 4
  %13 = load i32, ptr @cookies_size, align 4
  %14 = icmp sge i32 %12, %13
  br i1 %14, label %22, label %15

15:                                               ; preds = %11
  %16 = load ptr, ptr @cookies, align 8
  %17 = load i32, ptr %4, align 4
  %18 = sext i32 %17 to i64
  %19 = getelementptr inbounds ptr, ptr %16, i64 %18
  %20 = load ptr, ptr %19, align 8
  %21 = icmp eq ptr %20, null
  br i1 %21, label %22, label %35

22:                                               ; preds = %15, %11, %3
  br label %23

23:                                               ; preds = %22
  br i1 true, label %24, label %26

24:                                               ; preds = %23
  %25 = call zeroext i1 @errstart_cold(i32 noundef 21, ptr noundef null) #9
  br i1 %25, label %28, label %32

26:                                               ; preds = %23
  %27 = call zeroext i1 @errstart(i32 noundef 21, ptr noundef null)
  br i1 %27, label %28, label %32

28:                                               ; preds = %26, %24
  %29 = call i32 @errcode(i32 noundef 67137668)
  %30 = load i32, ptr %4, align 4
  %31 = call i32 (ptr, ...) @errmsg(ptr noundef @.str.1, i32 noundef %30)
  call void @errfinish(ptr noundef @.str.2, i32 noundef 190, ptr noundef @__func__.lo_write)
  br label %32

32:                                               ; preds = %28, %26, %24
  unreachable

33:                                               ; No predecessors!
  br label %34

34:                                               ; preds = %33
  br label %35

35:                                               ; preds = %34, %15
  %36 = load ptr, ptr @cookies, align 8
  %37 = load i32, ptr %4, align 4
  %38 = sext i32 %37 to i64
  %39 = getelementptr inbounds ptr, ptr %36, i64 %38
  %40 = load ptr, ptr %39, align 8
  store ptr %40, ptr %8, align 8
  %41 = load ptr, ptr %8, align 8
  %42 = getelementptr inbounds nuw %struct.LargeObjectDesc, ptr %41, i32 0, i32 4
  %43 = load i32, ptr %42, align 8
  %44 = and i32 %43, 2
  %45 = icmp eq i32 %44, 0
  br i1 %45, label %46, label %59

46:                                               ; preds = %35
  br label %47

47:                                               ; preds = %46
  br i1 true, label %48, label %50

48:                                               ; preds = %47
  %49 = call zeroext i1 @errstart_cold(i32 noundef 21, ptr noundef null) #9
  br i1 %49, label %52, label %56

50:                                               ; preds = %47
  %51 = call zeroext i1 @errstart(i32 noundef 21, ptr noundef null)
  br i1 %51, label %52, label %56

52:                                               ; preds = %50, %48
  %53 = call i32 @errcode(i32 noundef 325)
  %54 = load i32, ptr %4, align 4
  %55 = call i32 (ptr, ...) @errmsg(ptr noundef @.str.4, i32 noundef %54)
  call void @errfinish(ptr noundef @.str.2, i32 noundef 198, ptr noundef @__func__.lo_write)
  br label %56

56:                                               ; preds = %52, %50, %48
  unreachable

57:                                               ; No predecessors!
  br label %58

58:                                               ; preds = %57
  br label %59

59:                                               ; preds = %58, %35
  %60 = load ptr, ptr %8, align 8
  %61 = load ptr, ptr %5, align 8
  %62 = load i32, ptr %6, align 4
  %63 = call i32 @inv_write(ptr noundef %60, ptr noundef %61, i32 noundef %62)
  store i32 %63, ptr %7, align 4
  %64 = load i32, ptr %7, align 4
  call void @llvm.lifetime.end.p0(i64 8, ptr %8) #8
  call void @llvm.lifetime.end.p0(i64 4, ptr %7) #8
  ret i32 %64
}