; Function Attrs: nounwind uwtable
define dso_local i32 @lo_write(i32 noundef %0, ptr noundef %1, i32 noundef %2) local_unnamed_addr #0 {
  %4 = icmp sgt i32 %0, -1
  %5 = load i32, ptr @cookies_size, align 4
  %.not = icmp slt i32 %0, %5
  %or.cond = select i1 %4, i1 %.not, i1 false
  br i1 %or.cond, label %6, label %12

6:                                                ; preds = %3
  %7 = load ptr, ptr @cookies, align 8
  %8 = zext nneg i32 %0 to i64
  %9 = getelementptr inbounds nuw ptr, ptr %7, i64 %8
  %10 = load ptr, ptr %9, align 8
  %11 = icmp eq ptr %10, null
  br i1 %11, label %12, label %16

12:                                               ; preds = %6, %3
  %13 = tail call zeroext i1 @errstart_cold(i32 noundef 21, ptr noundef null) #11
  tail call void @llvm.assume(i1 %13)
  %14 = tail call i32 @errcode(i32 noundef 67137668) #10
  %15 = tail call i32 (ptr, ...) @errmsg(ptr noundef nonnull @.str.1, i32 noundef %0) #10
  tail call void @errfinish(ptr noundef nonnull @.str.2, i32 noundef 190, ptr noundef nonnull @__func__.lo_write) #10
  unreachable

16:                                               ; preds = %6
  %17 = getelementptr inbounds nuw i8, ptr %10, i64 32
  %18 = load i32, ptr %17, align 8
  %19 = and i32 %18, 2
  %20 = icmp eq i32 %19, 0
  br i1 %20, label %21, label %25

21:                                               ; preds = %16
  %22 = tail call zeroext i1 @errstart_cold(i32 noundef 21, ptr noundef null) #11
  tail call void @llvm.assume(i1 %22)
  %23 = tail call i32 @errcode(i32 noundef 325) #10
  %24 = tail call i32 (ptr, ...) @errmsg(ptr noundef nonnull @.str.4, i32 noundef %0) #10
  tail call void @errfinish(ptr noundef nonnull @.str.2, i32 noundef 198, ptr noundef nonnull @__func__.lo_write) #10
  unreachable

25:                                               ; preds = %16
  %26 = tail call i32 @inv_write(ptr noundef nonnull %10, ptr noundef %1, i32 noundef %2) #10
  ret i32 %26
}